target datalayout = "e-m:e-p270:32:32-p271:32:32-p272:64:64-i64:64-i128:128-f80:128-n8:16:32:64-S128"
target triple = "x86_64-pc-linux-gnu"

%class.QString = type { %struct.QArrayDataPointer }
%struct.QArrayDataPointer = type { ptr, ptr, i64 }
%class.WelcomePage = type { %class.QFrame, ptr, %class.QString, %class.QString, ptr, ptr }
%class.QFrame = type { %class.QWidget }
%class.QWidget = type { %class.QObject, %class.QPaintDevice.base, ptr }
%class.QObject = type { ptr, %class.QScopedPointer }
%class.QScopedPointer = type { ptr }
%class.QPaintDevice.base = type <{ ptr, i16 }>
%class.Ui_WelcomePage = type { ptr, ptr, ptr, ptr, ptr, ptr, ptr, ptr, ptr, ptr, ptr, ptr, ptr, ptr, ptr, ptr, ptr, ptr, ptr, ptr, ptr, ptr, ptr, ptr }
%class.QEvent = type { ptr, i16, i8, i8, i8, i8, i16 }

; Function Attrs: mustprogress nounwind uwtable
define linkonce_odr noundef i32 @_ZNK6QEvent4typeEv(ptr noundef nonnull align 8 dereferenceable(16) %0) #1 comdat align 2 {
  %2 = alloca ptr, align 8
  store ptr %0, ptr %2, align 8
  %3 = load ptr, ptr %2, align 8
  %4 = getelementptr inbounds %class.QEvent, ptr %3, i32 0, i32 1
  %5 = load i16, ptr %4, align 8
  %6 = zext i16 %5 to i32
  ret i32 %6
}

; Function Attrs: mustprogress uwtable
define void @_ZN11WelcomePage11changeEventEP6QEvent(ptr noundef nonnull align 8 dereferenceable(112) %0, ptr noundef %1) unnamed_addr #0 align 2 {
  %3 = alloca ptr, align 8
  %4 = alloca ptr, align 8
  store ptr %0, ptr %3, align 8
  store ptr %1, ptr %4, align 8
  %5 = load ptr, ptr %3, align 8
  %6 = load ptr, ptr %4, align 8
  %7 = icmp ne ptr null, %6
  br i1 %7, label %8, label %21

8:                                                ; preds = %2
  %9 = load ptr, ptr %4, align 8
  %10 = call noundef i32 @_ZNK6QEvent4typeEv(ptr noundef nonnull align 8 dereferenceable(16) %9)
  switch i32 %10, label %19 [
    i32 89, label %11
  ]

11:                                               ; preds = %8
  %12 = getelementptr inbounds %class.WelcomePage, ptr %5, i32 0, i32 1
  %13 = load ptr, ptr %12, align 8
  call void @_ZN14Ui_WelcomePage13retranslateUiEP7QWidget(ptr noundef nonnull align 8 dereferenceable(192) %13, ptr noundef %5)
  %14 = getelementptr inbounds %class.WelcomePage, ptr %5, i32 0, i32 1
  %15 = load ptr, ptr %14, align 8
  %16 = getelementptr inbounds %class.Ui_WelcomePage, ptr %15, i32 0, i32 8
  %17 = load ptr, ptr %16, align 8
  %18 = getelementptr inbounds %class.WelcomePage, ptr %5, i32 0, i32 2
  call void @_ZN6QLabel7setTextERK7QString(ptr noundef nonnull align 8 dereferenceable(40) %17, ptr noundef nonnull align 8 dereferenceable(24) %18)
  call void @_ZN11WelcomePage20interfaceListChangedEv(ptr noundef nonnull align 8 dereferenceable(112) %5)
  call void @_ZN11WelcomePage15setReleaseLabelEv(ptr noundef nonnull align 8 dereferenceable(112) %5)
  br label %20

19:                                               ; preds = %8
  br label %20

20:                                               ; preds = %19, %11
  br label %21

21:                                               ; preds = %20, %2
  %22 = load ptr, ptr %4, align 8
  call void @_ZN6QFrame11changeEventEP6QEvent(ptr noundef nonnull align 8 dereferenceable(40) %5, ptr noundef %22)
  ret void
}