; Function Attrs: mustprogress uwtable
define void @_ZN11WelcomePage11changeEventEP6QEvent(ptr noundef nonnull align 8 dereferenceable(112) %0, ptr noundef %1) unnamed_addr #0 align 2 {
  %.not = icmp eq ptr %1, null
  br i1 %.not, label %13, label %3

3:                                                ; preds = %2
  %4 = getelementptr inbounds i8, ptr %1, i64 8
  %5 = load i16, ptr %4, align 8
  %cond = icmp eq i16 %5, 89
  br i1 %cond, label %6, label %13

6:                                                ; preds = %3
  %7 = getelementptr inbounds i8, ptr %0, i64 40
  %8 = load ptr, ptr %7, align 8
  tail call void @_ZN14Ui_WelcomePage13retranslateUiEP7QWidget(ptr noundef nonnull align 8 dereferenceable(192) %8, ptr noundef nonnull %0)
  %9 = load ptr, ptr %7, align 8
  %10 = getelementptr inbounds i8, ptr %9, i64 64
  %11 = load ptr, ptr %10, align 8
  %12 = getelementptr inbounds i8, ptr %0, i64 48
  tail call void @_ZN6QLabel7setTextERK7QString(ptr noundef nonnull align 8 dereferenceable(40) %11, ptr noundef nonnull align 8 dereferenceable(24) %12)
  tail call void @_ZN11WelcomePage20interfaceListChangedEv(ptr noundef nonnull align 8 dereferenceable(112) %0)
  tail call void @_ZN11WelcomePage15setReleaseLabelEv(ptr noundef nonnull align 8 dereferenceable(112) %0)
  br label %13

13:                                               ; preds = %6, %3, %2
  tail call void @_ZN6QFrame11changeEventEP6QEvent(ptr noundef nonnull align 8 dereferenceable(40) %0, ptr noundef %1)
  ret void
}